; Function Attrs: mustprogress uwtable
define void @_ZN9grpc_core18LegacyMaxAgeFilter8ShutdownEv(ptr nocapture noundef nonnull align 8 dereferenceable(88) %this) unnamed_addr #3 align 2 {
entry:
  %max_age_activity_ = getelementptr inbounds i8, ptr %this, i64 64
  %0 = atomicrmw xchg ptr %max_age_activity_, i64 0 acq_rel, align 8
  %cmp.i.i = icmp eq i64 %0, 0
  br i1 %cmp.i.i, label %_ZN9grpc_core12SingleSetPtrINS_8ActivityENS_16OrphanableDeleteEE5ResetEv.exit, label %if.end.i.i

if.end.i.i:                                       ; preds = %entry
  %atomic-temp.i.0.i.i = inttoptr i64 %0 to ptr
  %vtable.i.i.i = load ptr, ptr %atomic-temp.i.0.i.i, align 8
  %1 = load ptr, ptr %vtable.i.i.i, align 8
  tail call void %1(ptr noundef nonnull align 8 dereferenceable(8) %atomic-temp.i.0.i.i)
  br label %_ZN9grpc_core12SingleSetPtrINS_8ActivityENS_16OrphanableDeleteEE5ResetEv.exit

_ZN9grpc_core12SingleSetPtrINS_8ActivityENS_16OrphanableDeleteEE5ResetEv.exit: ; preds = %entry, %if.end.i.i
  %idle_filter_state_.i.i = getelementptr inbounds i8, ptr %this, i64 40
  %2 = load ptr, ptr %idle_filter_state_.i.i, align 8
  tail call void @_ZN9grpc_core15IdleFilterState17IncreaseCallCountEv(ptr noundef nonnull align 8 dereferenceable(8) %2)
  %activity_.i = getelementptr inbounds i8, ptr %this, i64 56
  %3 = atomicrmw xchg ptr %activity_.i, i64 0 acq_rel, align 8
  %cmp.i.i.i = icmp eq i64 %3, 0
  br i1 %cmp.i.i.i, label %_ZN9grpc_core23LegacyChannelIdleFilter8ShutdownEv.exit, label %if.end.i.i.i

if.end.i.i.i:                                     ; preds = %_ZN9grpc_core12SingleSetPtrINS_8ActivityENS_16OrphanableDeleteEE5ResetEv.exit
  %atomic-temp.i.0.i.i.i = inttoptr i64 %3 to ptr
  %vtable.i.i.i.i = load ptr, ptr %atomic-temp.i.0.i.i.i, align 8
  %4 = load ptr, ptr %vtable.i.i.i.i, align 8
  tail call void %4(ptr noundef nonnull align 8 dereferenceable(8) %atomic-temp.i.0.i.i.i)
  br label %_ZN9grpc_core23LegacyChannelIdleFilter8ShutdownEv.exit

_ZN9grpc_core23LegacyChannelIdleFilter8ShutdownEv.exit: ; preds = %_ZN9grpc_core12SingleSetPtrINS_8ActivityENS_16OrphanableDeleteEE5ResetEv.exit, %if.end.i.i.i
  ret void
}